target datalayout = "e-m:e-p270:32:32-p271:32:32-p272:64:64-i64:64-i128:128-f80:128-n8:16:32:64-S128"
target triple = "x86_64-unknown-linux-gnu"

@s_tdefl_num_probes = internal constant [11 x i32] [i32 0, i32 1, i32 6, i32 32, i32 16, i32 32, i32 128, i32 256, i32 512, i32 768, i32 1500], align 16

; Function Attrs: nounwind uwtable
define hidden i32 @tdefl_create_comp_flags_from_zip_params(i32 noundef %level, i32 noundef %window_bits, i32 noundef %strategy) #0 {
entry:
  %level.addr = alloca i32, align 4
  %window_bits.addr = alloca i32, align 4
  %strategy.addr = alloca i32, align 4
  %comp_flags = alloca i32, align 4
  store i32 %level, ptr %level.addr, align 4
  store i32 %window_bits, ptr %window_bits.addr, align 4
  store i32 %strategy, ptr %strategy.addr, align 4
  %0 = load i32, ptr %level.addr, align 4
  %cmp = icmp sge i32 %0, 0
  br i1 %cmp, label %cond.true, label %cond.false3

cond.true:                                        ; preds = %entry
  %1 = load i32, ptr %level.addr, align 4
  %cmp1 = icmp slt i32 10, %1
  br i1 %cmp1, label %cond.true2, label %cond.false

cond.true2:                                       ; preds = %cond.true
  br label %cond.end

cond.false:                                       ; preds = %cond.true
  %2 = load i32, ptr %level.addr, align 4
  br label %cond.end

cond.end:                                         ; preds = %cond.false, %cond.true2
  %cond = phi i32 [ 10, %cond.true2 ], [ %2, %cond.false ]
  br label %cond.end4

cond.false3:                                      ; preds = %entry
  br label %cond.end4

cond.end4:                                        ; preds = %cond.false3, %cond.end
  %cond5 = phi i32 [ %cond, %cond.end ], [ 6, %cond.false3 ]
  %idxprom = sext i32 %cond5 to i64
  %arrayidx = getelementptr inbounds [11 x i32], ptr @s_tdefl_num_probes, i64 0, i64 %idxprom
  %3 = load i32, ptr %arrayidx, align 4
  %4 = load i32, ptr %level.addr, align 4
  %cmp6 = icmp sle i32 %4, 3
  %cond7 = select i1 %cmp6, i32 16384, i32 0
  %or = or i32 %3, %cond7
  store i32 %or, ptr %comp_flags, align 4
  %5 = load i32, ptr %window_bits.addr, align 4
  %cmp8 = icmp sgt i32 %5, 0
  br i1 %cmp8, label %if.then, label %if.end

if.then:                                          ; preds = %cond.end4
  %6 = load i32, ptr %comp_flags, align 4
  %or9 = or i32 %6, 4096
  store i32 %or9, ptr %comp_flags, align 4
  br label %if.end

if.end:                                           ; preds = %if.then, %cond.end4
  %7 = load i32, ptr %level.addr, align 4
  %tobool = icmp ne i32 %7, 0
  br i1 %tobool, label %if.else, label %if.then10

if.then10:                                        ; preds = %if.end
  %8 = load i32, ptr %comp_flags, align 4
  %or11 = or i32 %8, 524288
  store i32 %or11, ptr %comp_flags, align 4
  br label %if.end30

if.else:                                          ; preds = %if.end
  %9 = load i32, ptr %strategy.addr, align 4
  %cmp12 = icmp eq i32 %9, 1
  br i1 %cmp12, label %if.then13, label %if.else15

if.then13:                                        ; preds = %if.else
  %10 = load i32, ptr %comp_flags, align 4
  %or14 = or i32 %10, 131072
  store i32 %or14, ptr %comp_flags, align 4
  br label %if.end29

if.else15:                                        ; preds = %if.else
  %11 = load i32, ptr %strategy.addr, align 4
  %cmp16 = icmp eq i32 %11, 2
  br i1 %cmp16, label %if.then17, label %if.else18

if.then17:                                        ; preds = %if.else15
  %12 = load i32, ptr %comp_flags, align 4
  %and = and i32 %12, -4096
  store i32 %and, ptr %comp_flags, align 4
  br label %if.end28

if.else18:                                        ; preds = %if.else15
  %13 = load i32, ptr %strategy.addr, align 4
  %cmp19 = icmp eq i32 %13, 4
  br i1 %cmp19, label %if.then20, label %if.else22

if.then20:                                        ; preds = %if.else18
  %14 = load i32, ptr %comp_flags, align 4
  %or21 = or i32 %14, 262144
  store i32 %or21, ptr %comp_flags, align 4
  br label %if.end27

if.else22:                                        ; preds = %if.else18
  %15 = load i32, ptr %strategy.addr, align 4
  %cmp23 = icmp eq i32 %15, 3
  br i1 %cmp23, label %if.then24, label %if.end26

if.then24:                                        ; preds = %if.else22
  %16 = load i32, ptr %comp_flags, align 4
  %or25 = or i32 %16, 65536
  store i32 %or25, ptr %comp_flags, align 4
  br label %if.end26

if.end26:                                         ; preds = %if.then24, %if.else22
  br label %if.end27

if.end27:                                         ; preds = %if.end26, %if.then20
  br label %if.end28

if.end28:                                         ; preds = %if.end27, %if.then17
  br label %if.end29

if.end29:                                         ; preds = %if.end28, %if.then13
  br label %if.end30

if.end30:                                         ; preds = %if.end29, %if.then10
  %17 = load i32, ptr %comp_flags, align 4
  ret i32 %17
}