; Function Attrs: mustprogress nofree norecurse nosync nounwind willreturn memory(none) uwtable
define hidden i32 @tdefl_create_comp_flags_from_zip_params(i32 noundef %level, i32 noundef %window_bits, i32 noundef %strategy) local_unnamed_addr #3 {
entry:
  %cmp = icmp sgt i32 %level, -1
  %0 = tail call i32 @llvm.umin.i32(i32 %level, i32 10)
  %cond5 = select i1 %cmp, i32 %0, i32 6
  %idxprom = zext nneg i32 %cond5 to i64
  %arrayidx = getelementptr inbounds nuw [11 x i32], ptr @tdefl_write_image_to_png_file_in_memory_ex.s_tdefl_png_num_probes, i64 0, i64 %idxprom
  %1 = load i32, ptr %arrayidx, align 4
  %cmp6 = icmp slt i32 %level, 4
  %cond7 = select i1 %cmp6, i32 16384, i32 0
  %or = or i32 %1, %cond7
  %cmp8 = icmp sgt i32 %window_bits, 0
  %or9 = or i32 %or, 4096
  %spec.select = select i1 %cmp8, i32 %or9, i32 %or
  %tobool.not = icmp eq i32 %level, 0
  br i1 %tobool.not, label %if.then10, label %if.else

if.then10:                                        ; preds = %entry
  %or11 = or i32 %spec.select, 524288
  br label %if.end30

if.else:                                          ; preds = %entry
  switch i32 %strategy, label %if.end30 [
    i32 1, label %if.then13
    i32 2, label %if.then17
    i32 4, label %if.then20
    i32 3, label %if.then24
  ]

if.then13:                                        ; preds = %if.else
  %or14 = or i32 %spec.select, 131072
  br label %if.end30

if.then17:                                        ; preds = %if.else
  %and = and i32 %spec.select, -4096
  br label %if.end30

if.then20:                                        ; preds = %if.else
  %or21 = or i32 %spec.select, 262144
  br label %if.end30

if.then24:                                        ; preds = %if.else
  %or25 = or i32 %spec.select, 65536
  br label %if.end30

if.end30:                                         ; preds = %if.else, %if.then13, %if.then20, %if.then24, %if.then17, %if.then10
  %comp_flags.1 = phi i32 [ %or14, %if.then13 ], [ %and, %if.then17 ], [ %or21, %if.then20 ], [ %or25, %if.then24 ], [ %or11, %if.then10 ], [ %spec.select, %if.else ]
  ret i32 %comp_flags.1
}